target datalayout = "e-m:e-p270:32:32-p271:32:32-p272:64:64-i64:64-i128:128-f80:128-n8:16:32:64-S128"
target triple = "x86_64-pc-linux-gnu"

%"class.std::__1::basic_string" = type { %"class.std::__1::__compressed_pair" }
%"class.std::__1::__compressed_pair" = type { %"struct.std::__1::__compressed_pair_elem" }
%"struct.std::__1::__compressed_pair_elem" = type { %"struct.std::__1::basic_string<char>::__rep" }
%"struct.std::__1::basic_string<char>::__rep" = type { %union.anon }
%union.anon = type { %"struct.std::__1::basic_string<char>::__long" }
%"struct.std::__1::basic_string<char>::__long" = type { %struct.anon.0, i64, ptr }
%struct.anon.0 = type { i64 }
%"class.std::__1::vector.10" = type { ptr, ptr, %"class.std::__1::__compressed_pair.11" }
%"class.std::__1::__compressed_pair.11" = type { %"struct.std::__1::__compressed_pair_elem.12" }
%"struct.std::__1::__compressed_pair_elem.12" = type { ptr }
%class.anon = type { ptr, ptr, ptr, ptr, ptr, ptr, ptr, ptr }
%"class.std::__1::vector.26" = type { ptr, ptr, %"class.std::__1::__compressed_pair.27" }
%"class.std::__1::__compressed_pair.27" = type { %"struct.std::__1::__compressed_pair_elem.28" }
%"struct.std::__1::__compressed_pair_elem.28" = type { ptr }
%"struct.nanogui::Array.24" = type { [2 x i32] }
%"struct.tev::ImageData" = type { %"class.std::__1::vector.10", %"class.std::__1::vector.17", %"struct.nanogui::Matrix", i8, %"struct.tev::Box", %"struct.tev::Box", %"class.std::__1::basic_string" }
%"class.std::__1::vector.17" = type { ptr, ptr, %"class.std::__1::__compressed_pair.18" }
%"class.std::__1::__compressed_pair.18" = type { %"struct.std::__1::__compressed_pair_elem.19" }
%"struct.std::__1::__compressed_pair_elem.19" = type { ptr }
%"struct.nanogui::Matrix" = type { [4 x [4 x float]] }
%"struct.tev::Box" = type { %"struct.nanogui::Array.24", %"struct.nanogui::Array.24" }
%"class.tev::Channel" = type { %"class.std::__1::basic_string", %"struct.nanogui::Array.24", %"class.std::__1::vector.64" }
%"class.std::__1::vector.64" = type { ptr, ptr, %"class.std::__1::__compressed_pair.65" }
%"class.std::__1::__compressed_pair.65" = type { %"struct.std::__1::__compressed_pair_elem.66" }
%"struct.std::__1::__compressed_pair_elem.66" = type { ptr }

; Function Attrs: mustprogress nounwind uwtable
define linkonce_odr hidden noundef nonnull align 4 dereferenceable(4) ptr @_ZNSt3__16vectorIfNS_9allocatorIfEEEixB8ne190000Em(ptr noundef nonnull align 8 dereferenceable(24) %0, i64 noundef %1) #1 comdat align 2 {
  %3 = alloca ptr, align 8
  %4 = alloca i64, align 8
  store ptr %0, ptr %3, align 8
  store i64 %1, ptr %4, align 8
  %5 = load ptr, ptr %3, align 8
  %6 = getelementptr inbounds %"class.std::__1::vector.64", ptr %5, i32 0, i32 0
  %7 = load ptr, ptr %6, align 8
  %8 = load i64, ptr %4, align 8
  %9 = getelementptr inbounds float, ptr %7, i64 %8
  ret ptr %9
}

; Function Attrs: mustprogress nounwind uwtable
define linkonce_odr hidden noundef float @_ZNSt3__16__math3powB8ne190000Eff(float noundef %0, float noundef %1) #1 comdat {
  %3 = alloca float, align 4
  %4 = alloca float, align 4
  store float %0, ptr %3, align 4
  store float %1, ptr %4, align 4
  %5 = load float, ptr %3, align 4
  %6 = load float, ptr %4, align 4
  %7 = call float @powf(float noundef %5, float noundef %6) #13
  ret float %7
}

; Function Attrs: mustprogress nounwind uwtable
define linkonce_odr dso_local noundef nonnull align 4 dereferenceable(4) ptr @_ZN3tev7Channel2atEm(ptr noundef nonnull align 8 dereferenceable(56) %0, i64 noundef %1) #1 comdat align 2 {
  %3 = alloca ptr, align 8
  %4 = alloca i64, align 8
  store ptr %0, ptr %3, align 8
  store i64 %1, ptr %4, align 8
  %5 = load ptr, ptr %3, align 8
  %6 = getelementptr inbounds %"class.tev::Channel", ptr %5, i32 0, i32 2
  %7 = load i64, ptr %4, align 8
  %8 = call noundef nonnull align 4 dereferenceable(4) ptr @_ZNSt3__16vectorIfNS_9allocatorIfEEEixB8ne190000Em(ptr noundef nonnull align 8 dereferenceable(24) %6, i64 noundef %7) #13
  ret ptr %8
}

; Function Attrs: mustprogress nounwind uwtable
define linkonce_odr dso_local noundef nonnull align 4 dereferenceable(4) ptr @_ZN7nanogui5ArrayIiLm2EE1yILm2ETnNSt3__19enable_ifIXgeT_Li2EEiE4typeELi0EEERiv(ptr noundef nonnull align 4 dereferenceable(8) %0) #1 comdat align 2 {
  %2 = alloca ptr, align 8
  store ptr %0, ptr %2, align 8
  %3 = load ptr, ptr %2, align 8
  %4 = getelementptr inbounds %"struct.nanogui::Array.24", ptr %3, i32 0, i32 0
  %5 = getelementptr inbounds [2 x i32], ptr %4, i64 0, i64 1
  ret ptr %5
}

; Function Attrs: mustprogress nounwind uwtable
define linkonce_odr dso_local noundef float @_ZN3tev8toLinearEff(float noundef %0, float noundef %1) #1 comdat {
  %3 = alloca float, align 4
  %4 = alloca float, align 4
  %5 = alloca float, align 4
  store float %0, ptr %4, align 4
  store float %1, ptr %5, align 4
  %6 = load float, ptr %4, align 4
  %7 = fcmp ole float %6, 0x3FA4B5DCC0000000
  br i1 %7, label %8, label %11

8:                                                ; preds = %2
  %9 = load float, ptr %4, align 4
  %10 = fdiv float %9, 0x4029D70A40000000
  store float %10, ptr %3, align 4
  br label %17

11:                                               ; preds = %2
  %12 = load float, ptr %4, align 4
  %13 = fadd float %12, 0x3FAC28F5C0000000
  %14 = fdiv float %13, 0x3FF0E147A0000000
  %15 = load float, ptr %5, align 4
  %16 = call noundef float @_ZNSt3__16__math3powB8ne190000Eff(float noundef %14, float noundef %15) #13
  store float %16, ptr %3, align 4
  br label %17

17:                                               ; preds = %11, %8
  %18 = load float, ptr %3, align 4
  ret float %18
}

; Function Attrs: mustprogress uwtable
define linkonce_odr dso_local noundef nonnull align 4 dereferenceable(4) ptr @_ZN3tev7Channel2atEN7nanogui5ArrayIiLm2EEE(ptr noundef nonnull align 8 dereferenceable(56) %0, i64 %1) #4 comdat align 2 {
  %3 = alloca %"struct.nanogui::Array.24", align 4
  %4 = alloca ptr, align 8
  %5 = getelementptr inbounds %"struct.nanogui::Array.24", ptr %3, i32 0, i32 0
  store i64 %1, ptr %5, align 4
  store ptr %0, ptr %4, align 8
  %6 = load ptr, ptr %4, align 8
  %7 = call noundef nonnull align 4 dereferenceable(4) ptr @_ZN7nanogui5ArrayIiLm2EE1xILm2ETnNSt3__19enable_ifIXgeT_Li1EEiE4typeELi0EEERiv(ptr noundef nonnull align 4 dereferenceable(8) %3)
  %8 = load i32, ptr %7, align 4
  %9 = call noundef nonnull align 4 dereferenceable(4) ptr @_ZN7nanogui5ArrayIiLm2EE1yILm2ETnNSt3__19enable_ifIXgeT_Li2EEiE4typeELi0EEERiv(ptr noundef nonnull align 4 dereferenceable(8) %3)
  %10 = load i32, ptr %9, align 4
  %11 = getelementptr inbounds %"class.tev::Channel", ptr %6, i32 0, i32 1
  %12 = call noundef nonnull align 4 dereferenceable(4) ptr @_ZN7nanogui5ArrayIiLm2EE1xILm2ETnNSt3__19enable_ifIXgeT_Li1EEiE4typeELi0EEERiv(ptr noundef nonnull align 4 dereferenceable(8) %11)
  %13 = load i32, ptr %12, align 4
  %14 = mul nsw i32 %10, %13
  %15 = add nsw i32 %8, %14
  %16 = sext i32 %15 to i64
  %17 = call noundef nonnull align 4 dereferenceable(4) ptr @_ZN3tev7Channel2atEm(ptr noundef nonnull align 8 dereferenceable(56) %6, i64 noundef %16)
  ret ptr %17
}

; Function Attrs: mustprogress nounwind uwtable
define linkonce_odr dso_local void @_ZN7nanogui5ArrayIiLm2EEC2ILm2ETnNSt3__19enable_ifIXeqT_Li2EEiE4typeELi0EEEii(ptr noundef nonnull align 4 dereferenceable(8) %0, i32 noundef %1, i32 noundef %2) unnamed_addr #1 comdat align 2 {
  %4 = alloca ptr, align 8
  %5 = alloca i32, align 4
  %6 = alloca i32, align 4
  store ptr %0, ptr %4, align 8
  store i32 %1, ptr %5, align 4
  store i32 %2, ptr %6, align 4
  %7 = load ptr, ptr %4, align 8
  %8 = load i32, ptr %5, align 4
  %9 = getelementptr inbounds %"struct.nanogui::Array.24", ptr %7, i32 0, i32 0
  %10 = getelementptr inbounds [2 x i32], ptr %9, i64 0, i64 0
  store i32 %8, ptr %10, align 4
  %11 = load i32, ptr %6, align 4
  %12 = getelementptr inbounds %"struct.nanogui::Array.24", ptr %7, i32 0, i32 0
  %13 = getelementptr inbounds [2 x i32], ptr %12, i64 0, i64 1
  store i32 %11, ptr %13, align 4
  ret void
}

; Function Attrs: mustprogress nounwind uwtable
define linkonce_odr hidden noundef nonnull align 8 dereferenceable(56) ptr @_ZNSt3__16vectorIN3tev7ChannelENS_9allocatorIS2_EEEixB8ne190000Em(ptr noundef nonnull align 8 dereferenceable(24) %0, i64 noundef %1) #1 comdat align 2 {
  %3 = alloca ptr, align 8
  %4 = alloca i64, align 8
  store ptr %0, ptr %3, align 8
  store i64 %1, ptr %4, align 8
  %5 = load ptr, ptr %3, align 8
  %6 = getelementptr inbounds %"class.std::__1::vector.10", ptr %5, i32 0, i32 0
  %7 = load ptr, ptr %6, align 8
  %8 = load i64, ptr %4, align 8
  %9 = getelementptr inbounds %"class.tev::Channel", ptr %7, i64 %8
  ret ptr %9
}

; Function Attrs: mustprogress nounwind uwtable
define linkonce_odr hidden noundef nonnull align 1 dereferenceable(1) ptr @_ZNSt3__16vectorIcNS_9allocatorIcEEEixB8ne190000Em(ptr noundef nonnull align 8 dereferenceable(24) %0, i64 noundef %1) #1 comdat align 2 {
  %3 = alloca ptr, align 8
  %4 = alloca i64, align 8
  store ptr %0, ptr %3, align 8
  store i64 %1, ptr %4, align 8
  %5 = load ptr, ptr %3, align 8
  %6 = getelementptr inbounds %"class.std::__1::vector.26", ptr %5, i32 0, i32 0
  %7 = load ptr, ptr %6, align 8
  %8 = load i64, ptr %4, align 8
  %9 = getelementptr inbounds i8, ptr %7, i64 %8
  ret ptr %9
}

; Function Attrs: mustprogress nounwind uwtable
define linkonce_odr dso_local noundef nonnull align 4 dereferenceable(4) ptr @_ZN7nanogui5ArrayIiLm2EE1xILm2ETnNSt3__19enable_ifIXgeT_Li1EEiE4typeELi0EEERiv(ptr noundef nonnull align 4 dereferenceable(8) %0) #1 comdat align 2 {
  %2 = alloca ptr, align 8
  store ptr %0, ptr %2, align 8
  %3 = load ptr, ptr %2, align 8
  %4 = getelementptr inbounds %"struct.nanogui::Array.24", ptr %3, i32 0, i32 0
  %5 = getelementptr inbounds [2 x i32], ptr %4, i64 0, i64 0
  ret ptr %5
}

; Function Attrs: mustprogress uwtable
define internal void @"_ZZNK3tev20ClipboardImageLoader4loadERNSt3__113basic_istreamIcNS1_11char_traitsIcEEEERKNS1_4__fs10filesystem4pathERKNS1_12basic_stringIcS4_NS1_9allocatorIcEEEEiENK3$_0clEi"(ptr noundef nonnull align 8 dereferenceable(64) %0, i32 noundef %1) #4 align 2 {
  %3 = alloca ptr, align 8
  %4 = alloca i32, align 4
  %5 = alloca i32, align 4
  %6 = alloca i32, align 4
  %7 = alloca i32, align 4
  %8 = alloca i8, align 1
  %9 = alloca %"struct.nanogui::Array.24", align 4
  %10 = alloca float, align 4
  %11 = alloca %"struct.nanogui::Array.24", align 4
  %12 = alloca float, align 4
  %13 = alloca %"struct.nanogui::Array.24", align 4
  store ptr %0, ptr %3, align 8
  store i32 %1, ptr %4, align 4
  %14 = load ptr, ptr %3, align 8
  store i32 0, ptr %5, align 4
  br label %15

15:                                               ; preds = %130, %2
  %16 = load i32, ptr %5, align 4
  %17 = getelementptr inbounds %class.anon, ptr %14, i32 0, i32 0
  %18 = load ptr, ptr %17, align 8
  %19 = call noundef nonnull align 4 dereferenceable(4) ptr @_ZN7nanogui5ArrayIiLm2EE1xILm2ETnNSt3__19enable_ifIXgeT_Li1EEiE4typeELi0EEERiv(ptr noundef nonnull align 4 dereferenceable(8) %18)
  %20 = load i32, ptr %19, align 4
  %21 = icmp slt i32 %16, %20
  br i1 %21, label %22, label %133

22:                                               ; preds = %15
  %23 = load i32, ptr %4, align 4
  %24 = getelementptr inbounds %class.anon, ptr %14, i32 0, i32 1
  %25 = load ptr, ptr %24, align 8
  %26 = load i32, ptr %25, align 4
  %27 = mul nsw i32 %23, %26
  %28 = load i32, ptr %5, align 4
  %29 = getelementptr inbounds %class.anon, ptr %14, i32 0, i32 2
  %30 = load ptr, ptr %29, align 8
  %31 = load i32, ptr %30, align 4
  %32 = mul nsw i32 %28, %31
  %33 = add nsw i32 %27, %32
  store i32 %33, ptr %6, align 4
  %34 = getelementptr inbounds %class.anon, ptr %14, i32 0, i32 2
  %35 = load ptr, ptr %34, align 8
  %36 = load i32, ptr %35, align 4
  %37 = sub nsw i32 %36, 1
  store i32 %37, ptr %7, align 4
  br label %38

38:                                               ; preds = %126, %22
  %39 = load i32, ptr %7, align 4
  %40 = icmp sge i32 %39, 0
  br i1 %40, label %41, label %129

41:                                               ; preds = %38
  %42 = getelementptr inbounds %class.anon, ptr %14, i32 0, i32 3
  %43 = load ptr, ptr %42, align 8
  %44 = load i32, ptr %6, align 4
  %45 = getelementptr inbounds %class.anon, ptr %14, i32 0, i32 4
  %46 = load ptr, ptr %45, align 8
  %47 = load i32, ptr %7, align 4
  %48 = sext i32 %47 to i64
  %49 = getelementptr inbounds [4 x i32], ptr %46, i64 0, i64 %48
  %50 = load i32, ptr %49, align 4
  %51 = add nsw i32 %44, %50
  %52 = sext i32 %51 to i64
  %53 = call noundef nonnull align 1 dereferenceable(1) ptr @_ZNSt3__16vectorIcNS_9allocatorIcEEEixB8ne190000Em(ptr noundef nonnull align 8 dereferenceable(24) %43, i64 noundef %52) #13
  %54 = load i8, ptr %53, align 1
  store i8 %54, ptr %8, align 1
  %55 = load i32, ptr %7, align 4
  %56 = getelementptr inbounds %class.anon, ptr %14, i32 0, i32 5
  %57 = load ptr, ptr %56, align 8
  %58 = load i32, ptr %57, align 4
  %59 = icmp eq i32 %55, %58
  br i1 %59, label %60, label %76

60:                                               ; preds = %41
  %61 = load i8, ptr %8, align 1
  %62 = zext i8 %61 to i32
  %63 = sitofp i32 %62 to float
  %64 = fdiv float %63, 2.550000e+02
  %65 = getelementptr inbounds %class.anon, ptr %14, i32 0, i32 6
  %66 = load ptr, ptr %65, align 8
  %67 = getelementptr inbounds %"struct.tev::ImageData", ptr %66, i32 0, i32 0
  %68 = load i32, ptr %7, align 4
  %69 = sext i32 %68 to i64
  %70 = call noundef nonnull align 8 dereferenceable(56) ptr @_ZNSt3__16vectorIN3tev7ChannelENS_9allocatorIS2_EEEixB8ne190000Em(ptr noundef nonnull align 8 dereferenceable(24) %67, i64 noundef %69) #13
  %71 = load i32, ptr %5, align 4
  %72 = load i32, ptr %4, align 4
  call void @_ZN7nanogui5ArrayIiLm2EEC2ILm2ETnNSt3__19enable_ifIXeqT_Li2EEiE4typeELi0EEEii(ptr noundef nonnull align 4 dereferenceable(8) %9, i32 noundef %71, i32 noundef %72)
  %73 = getelementptr inbounds %"struct.nanogui::Array.24", ptr %9, i32 0, i32 0
  %74 = load i64, ptr %73, align 4
  %75 = call noundef nonnull align 4 dereferenceable(4) ptr @_ZN3tev7Channel2atEN7nanogui5ArrayIiLm2EEE(ptr noundef nonnull align 8 dereferenceable(56) %70, i64 %74)
  store float %64, ptr %75, align 4
  br label %125

76:                                               ; preds = %41
  %77 = getelementptr inbounds %class.anon, ptr %14, i32 0, i32 7
  %78 = load ptr, ptr %77, align 8
  %79 = load i8, ptr %78, align 1
  %80 = trunc i8 %79 to i1
  br i1 %80, label %81, label %96

81:                                               ; preds = %76
  %82 = getelementptr inbounds %class.anon, ptr %14, i32 0, i32 6
  %83 = load ptr, ptr %82, align 8
  %84 = getelementptr inbounds %"struct.tev::ImageData", ptr %83, i32 0, i32 0
  %85 = getelementptr inbounds %class.anon, ptr %14, i32 0, i32 5
  %86 = load ptr, ptr %85, align 8
  %87 = load i32, ptr %86, align 4
  %88 = sext i32 %87 to i64
  %89 = call noundef nonnull align 8 dereferenceable(56) ptr @_ZNSt3__16vectorIN3tev7ChannelENS_9allocatorIS2_EEEixB8ne190000Em(ptr noundef nonnull align 8 dereferenceable(24) %84, i64 noundef %88) #13
  %90 = load i32, ptr %5, align 4
  %91 = load i32, ptr %4, align 4
  call void @_ZN7nanogui5ArrayIiLm2EEC2ILm2ETnNSt3__19enable_ifIXeqT_Li2EEiE4typeELi0EEEii(ptr noundef nonnull align 4 dereferenceable(8) %11, i32 noundef %90, i32 noundef %91)
  %92 = getelementptr inbounds %"struct.nanogui::Array.24", ptr %11, i32 0, i32 0
  %93 = load i64, ptr %92, align 4
  %94 = call noundef nonnull align 4 dereferenceable(4) ptr @_ZN3tev7Channel2atEN7nanogui5ArrayIiLm2EEE(ptr noundef nonnull align 8 dereferenceable(56) %89, i64 %93)
  %95 = load float, ptr %94, align 4
  br label %97

96:                                               ; preds = %76
  br label %97

97:                                               ; preds = %96, %81
  %98 = phi float [ %95, %81 ], [ 1.000000e+00, %96 ]
  store float %98, ptr %10, align 4
  %99 = load float, ptr %10, align 4
  %100 = fcmp oeq float %99, 0.000000e+00
  br i1 %100, label %101, label %102

101:                                              ; preds = %97
  br label %105

102:                                              ; preds = %97
  %103 = load float, ptr %10, align 4
  %104 = fdiv float 1.000000e+00, %103
  br label %105

105:                                              ; preds = %102, %101
  %106 = phi float [ 0.000000e+00, %101 ], [ %104, %102 ]
  store float %106, ptr %12, align 4
  %107 = load i8, ptr %8, align 1
  %108 = zext i8 %107 to i32
  %109 = sitofp i32 %108 to float
  %110 = fdiv float %109, 2.550000e+02
  %111 = load float, ptr %12, align 4
  %112 = fmul float %110, %111
  %113 = call noundef float @_ZN3tev8toLinearEff(float noundef %112, float noundef 0x4003333340000000)
  %114 = getelementptr inbounds %class.anon, ptr %14, i32 0, i32 6
  %115 = load ptr, ptr %114, align 8
  %116 = getelementptr inbounds %"struct.tev::ImageData", ptr %115, i32 0, i32 0
  %117 = load i32, ptr %7, align 4
  %118 = sext i32 %117 to i64
  %119 = call noundef nonnull align 8 dereferenceable(56) ptr @_ZNSt3__16vectorIN3tev7ChannelENS_9allocatorIS2_EEEixB8ne190000Em(ptr noundef nonnull align 8 dereferenceable(24) %116, i64 noundef %118) #13
  %120 = load i32, ptr %5, align 4
  %121 = load i32, ptr %4, align 4
  call void @_ZN7nanogui5ArrayIiLm2EEC2ILm2ETnNSt3__19enable_ifIXeqT_Li2EEiE4typeELi0EEEii(ptr noundef nonnull align 4 dereferenceable(8) %13, i32 noundef %120, i32 noundef %121)
  %122 = getelementptr inbounds %"struct.nanogui::Array.24", ptr %13, i32 0, i32 0
  %123 = load i64, ptr %122, align 4
  %124 = call noundef nonnull align 4 dereferenceable(4) ptr @_ZN3tev7Channel2atEN7nanogui5ArrayIiLm2EEE(ptr noundef nonnull align 8 dereferenceable(56) %119, i64 %123)
  store float %113, ptr %124, align 4
  br label %125

125:                                              ; preds = %105, %60
  br label %126

126:                                              ; preds = %125
  %127 = load i32, ptr %7, align 4
  %128 = add nsw i32 %127, -1
  store i32 %128, ptr %7, align 4
  br label %38, !llvm.loop !165

129:                                              ; preds = %38
  br label %130

130:                                              ; preds = %129
  %131 = load i32, ptr %5, align 4
  %132 = add nsw i32 %131, 1
  store i32 %132, ptr %5, align 4
  br label %15, !llvm.loop !166

133:                                              ; preds = %15
  ret void
}