; Function Attrs: mustprogress nofree nounwind memory(readwrite, inaccessiblemem: write) uwtable
define internal fastcc void @"_ZZNK3tev20ClipboardImageLoader4loadERNSt3__113basic_istreamIcNS1_11char_traitsIcEEEERKNS1_4__fs10filesystem4pathERKNS1_12basic_stringIcS4_NS1_9allocatorIcEEEEiENK3$_0clEi"(ptr nocapture noundef nonnull readonly align 8 dereferenceable(64) %0, i32 noundef %1) unnamed_addr #17 align 2 {
  %3 = load ptr, ptr %0, align 8
  %4 = load i32, ptr %3, align 4
  %5 = icmp sgt i32 %4, 0
  br i1 %5, label %.lr.ph38, label %._crit_edge39

.lr.ph38:                                         ; preds = %2
  %6 = getelementptr inbounds i8, ptr %0, i64 8
  %7 = getelementptr inbounds i8, ptr %0, i64 16
  %8 = getelementptr inbounds i8, ptr %0, i64 24
  %9 = getelementptr inbounds i8, ptr %0, i64 32
  %10 = getelementptr inbounds i8, ptr %0, i64 40
  %11 = getelementptr inbounds i8, ptr %0, i64 56
  %12 = getelementptr inbounds i8, ptr %0, i64 48
  %13 = load ptr, ptr %7, align 8
  %14 = load i32, ptr %13, align 4
  %15 = icmp sgt i32 %14, 0
  br i1 %15, label %.lr.ph38.split, label %._crit_edge39

.lr.ph38.split:                                   ; preds = %.lr.ph38, %._crit_edge
  %16 = phi i32 [ %87, %._crit_edge ], [ %4, %.lr.ph38 ]
  %.036 = phi i32 [ %88, %._crit_edge ], [ 0, %.lr.ph38 ]
  %17 = load ptr, ptr %6, align 8
  %18 = load i32, ptr %17, align 4
  %19 = mul nsw i32 %18, %1
  %20 = load ptr, ptr %7, align 8
  %21 = load i32, ptr %20, align 4
  %22 = mul nsw i32 %21, %.036
  %23 = add nsw i32 %22, %19
  %24 = icmp sgt i32 %21, 0
  br i1 %24, label %.lr.ph.preheader, label %._crit_edge

.lr.ph.preheader:                                 ; preds = %.lr.ph38.split
  %25 = zext nneg i32 %21 to i64
  br label %.lr.ph

.lr.ph:                                           ; preds = %.lr.ph.preheader, %_ZN3tev8toLinearEff.exit
  %indvars.iv = phi i64 [ %25, %.lr.ph.preheader ], [ %indvars.iv.next, %_ZN3tev8toLinearEff.exit ]
  %indvars.iv.next = add nsw i64 %indvars.iv, -1
  %26 = load ptr, ptr %8, align 8
  %27 = load ptr, ptr %9, align 8
  %28 = getelementptr inbounds [4 x i32], ptr %27, i64 0, i64 %indvars.iv.next
  %29 = load i32, ptr %28, align 4
  %30 = add nsw i32 %23, %29
  %31 = sext i32 %30 to i64
  %32 = load ptr, ptr %26, align 8
  %33 = getelementptr inbounds i8, ptr %32, i64 %31
  %34 = load i8, ptr %33, align 1
  %35 = load ptr, ptr %10, align 8
  %36 = load i32, ptr %35, align 4
  %37 = zext i32 %36 to i64
  %38 = icmp eq i64 %indvars.iv.next, %37
  br i1 %38, label %39, label %42

39:                                               ; preds = %.lr.ph
  %40 = uitofp i8 %34 to float
  %41 = fdiv float %40, 2.550000e+02
  br label %_ZN3tev8toLinearEff.exit

42:                                               ; preds = %.lr.ph
  %43 = load ptr, ptr %11, align 8
  %44 = load i8, ptr %43, align 1
  %45 = and i8 %44, 1
  %.not = icmp eq i8 %45, 0
  br i1 %.not, label %60, label %46

46:                                               ; preds = %42
  %47 = load ptr, ptr %12, align 8
  %48 = sext i32 %36 to i64
  %49 = load ptr, ptr %47, align 8
  %50 = getelementptr inbounds %"class.tev::Channel", ptr %49, i64 %48
  %51 = getelementptr inbounds i8, ptr %50, i64 24
  %52 = load i32, ptr %51, align 4
  %53 = mul nsw i32 %52, %1
  %54 = add nsw i32 %53, %.036
  %55 = sext i32 %54 to i64
  %56 = getelementptr inbounds i8, ptr %50, i64 32
  %57 = load ptr, ptr %56, align 8
  %58 = getelementptr inbounds float, ptr %57, i64 %55
  %59 = load float, ptr %58, align 4
  br label %60

60:                                               ; preds = %42, %46
  %61 = phi float [ %59, %46 ], [ 1.000000e+00, %42 ]
  %62 = fcmp oeq float %61, 0.000000e+00
  %63 = fdiv float 1.000000e+00, %61
  %64 = select i1 %62, float 0.000000e+00, float %63
  %65 = uitofp i8 %34 to float
  %66 = fdiv float %65, 2.550000e+02
  %67 = fmul float %66, %64
  %68 = fcmp ugt float %67, 0x3FA4B5DCC0000000
  br i1 %68, label %71, label %69

69:                                               ; preds = %60
  %70 = fdiv float %67, 0x4029D70A40000000
  br label %_ZN3tev8toLinearEff.exit

71:                                               ; preds = %60
  %72 = fadd float %67, 0x3FAC28F5C0000000
  %73 = fdiv float %72, 0x3FF0E147A0000000
  %74 = tail call noundef float @powf(float noundef %73, float noundef 0x4003333340000000) #22
  br label %_ZN3tev8toLinearEff.exit

_ZN3tev8toLinearEff.exit:                         ; preds = %71, %69, %39
  %.sink = phi float [ %41, %39 ], [ %70, %69 ], [ %74, %71 ]
  %75 = load ptr, ptr %12, align 8
  %76 = load ptr, ptr %75, align 8
  %77 = getelementptr inbounds %"class.tev::Channel", ptr %76, i64 %indvars.iv.next
  %78 = getelementptr inbounds i8, ptr %77, i64 24
  %79 = load i32, ptr %78, align 4
  %80 = mul nsw i32 %79, %1
  %81 = add nsw i32 %80, %.036
  %82 = sext i32 %81 to i64
  %83 = getelementptr inbounds i8, ptr %77, i64 32
  %84 = load ptr, ptr %83, align 8
  %85 = getelementptr inbounds float, ptr %84, i64 %82
  store float %.sink, ptr %85, align 4
  %86 = icmp ugt i64 %indvars.iv, 1
  br i1 %86, label %.lr.ph, label %._crit_edge.loopexit, !llvm.loop !520

._crit_edge.loopexit:                             ; preds = %_ZN3tev8toLinearEff.exit
  %.pre = load ptr, ptr %0, align 8
  %.pre42 = load i32, ptr %.pre, align 4
  br label %._crit_edge

._crit_edge:                                      ; preds = %._crit_edge.loopexit, %.lr.ph38.split
  %87 = phi i32 [ %.pre42, %._crit_edge.loopexit ], [ %16, %.lr.ph38.split ]
  %88 = add nuw nsw i32 %.036, 1
  %89 = icmp slt i32 %88, %87
  br i1 %89, label %.lr.ph38.split, label %._crit_edge39, !llvm.loop !521

._crit_edge39:                                    ; preds = %._crit_edge, %.lr.ph38, %2
  ret void
}